; Function Attrs: mustprogress uwtable
define void @_ZN4base6PickleC2Ei(ptr noundef nonnull align 8 dereferenceable(40) initializes((0, 40)) %0, i32 noundef %1) unnamed_addr #0 align 2 personality ptr @__gxx_personality_v0 {
  store ptr getelementptr inbounds nuw inrange(-16, 40) (i8, ptr @_ZTVN4base6PickleE, i64 16), ptr %0, align 8, !tbaa !44
  %3 = getelementptr inbounds nuw i8, ptr %0, i64 8
  store ptr null, ptr %3, align 8, !tbaa !13
  %4 = getelementptr inbounds nuw i8, ptr %0, i64 16
  %5 = sext i32 %1 to i64
  %6 = add nsw i64 %5, 3
  %7 = and i64 %6, -4
  store i64 %7, ptr %4, align 8, !tbaa !14
  %8 = getelementptr inbounds nuw i8, ptr %0, i64 24
  tail call void @llvm.memset.p0.i64(ptr noundef nonnull align 8 dereferenceable(16) %8, i8 0, i64 16, i1 false)
  tail call void @_ZN4base6Pickle6ResizeEm(ptr noundef nonnull align 8 dereferenceable(40) %0, i64 noundef 64)
  %9 = load ptr, ptr %3, align 8, !tbaa !13
  store i32 0, ptr %9, align 4, !tbaa !15
  ret void
}